; Function Attrs: nounwind sspstrong uwtable
define dso_local void @tcg_gen_muls2_i32(ptr noundef %0, ptr noundef %1, ptr noundef %2, ptr noundef %3) local_unnamed_addr #2 {
  %5 = tail call align 8 ptr @llvm.threadlocal.address.p0(ptr align 8 @tcg_ctx)
  %6 = load ptr, ptr %5, align 8
  %7 = ptrtoint ptr %0 to i64
  %8 = getelementptr inbounds nuw i8, ptr %6, i64 %7
  %9 = ptrtoint ptr %8 to i64
  %10 = ptrtoint ptr %1 to i64
  %11 = getelementptr inbounds nuw i8, ptr %6, i64 %10
  %12 = ptrtoint ptr %11 to i64
  %13 = ptrtoint ptr %2 to i64
  %14 = getelementptr inbounds nuw i8, ptr %6, i64 %13
  %15 = ptrtoint ptr %14 to i64
  %16 = ptrtoint ptr %3 to i64
  %17 = getelementptr inbounds nuw i8, ptr %6, i64 %16
  %18 = ptrtoint ptr %17 to i64
  %19 = tail call ptr @tcg_gen_op4(i32 noundef 42, i32 noundef 0, i64 noundef %9, i64 noundef %12, i64 noundef %15, i64 noundef %18)
  ret void
}